; ModuleID = 'bench/openssl/original/der_sm2_sig.ll'
source_filename = "bench/openssl/original/der_sm2_sig.ll"
target datalayout = "e-m:e-p270:32:32-p271:32:32-p272:64:64-i64:64-i128:128-f80:128-n8:16:32:64-S128"
target triple = "x86_64-pc-linux-gnu"

@ossl_der_oid_sm2_with_SM3 = external constant [10 x i8], align 1

; Function Attrs: nounwind uwtable
define range(i32 0, 2) i32 @ossl_DER_w_algorithmIdentifier_SM2_with_MD(ptr noundef %0, i32 noundef %1, ptr noundef readnone captures(none) %2, i32 noundef %3) local_unnamed_addr #0 {
  %cond = icmp eq i32 %3, 1143
  br i1 %cond, label %5, label %13

5:                                                ; preds = %4
  %6 = tail call i32 @ossl_DER_w_begin_sequence(ptr noundef %0, i32 noundef %1) #2
  %.not = icmp eq i32 %6, 0
  br i1 %.not, label %13, label %7

7:                                                ; preds = %5
  %8 = tail call i32 @ossl_DER_w_precompiled(ptr noundef %0, i32 noundef -1, ptr noundef nonnull @ossl_der_oid_sm2_with_SM3, i64 noundef 10) #2
  %.not8 = icmp eq i32 %8, 0
  br i1 %.not8, label %13, label %9

9:                                                ; preds = %7
  %10 = tail call i32 @ossl_DER_w_end_sequence(ptr noundef %0, i32 noundef %1) #2
  %11 = icmp ne i32 %10, 0
  %12 = zext i1 %11 to i32
  br label %13

13:                                               ; preds = %5, %7, %9, %4
  %.0 = phi i32 [ 0, %4 ], [ 0, %7 ], [ 0, %5 ], [ %12, %9 ]
  ret i32 %.0
}

declare i32 @ossl_DER_w_begin_sequence(ptr noundef, i32 noundef) local_unnamed_addr #1

declare i32 @ossl_DER_w_precompiled(ptr noundef, i32 noundef, ptr noundef, i64 noundef) local_unnamed_addr #1

declare i32 @ossl_DER_w_end_sequence(ptr noundef, i32 noundef) local_unnamed_addr #1


!llvm.module.flags = !{!0, !1, !2}

!0 = !{i32 1, !"wchar_size", i32 4}
!1 = !{i32 8, !"PIC Level", i32 2}
!2 = !{i32 7, !"uwtable", i32 2}
